; Function Attrs: noinline nounwind uwtable
define internal fastcc void @mi_free_block_mt(ptr noundef %0, ptr noundef %1, ptr noundef %2) unnamed_addr #7 {
  %4 = tail call i64 @_mi_option_get_fast(i32 noundef 26) #19
  %.not = icmp eq i64 %4, 0
  br i1 %.not, label %52, label %5

5:                                                ; preds = %3
  %6 = getelementptr inbounds nuw i8, ptr %1, i64 280
  %7 = load atomic i64, ptr %6 monotonic, align 8
  %8 = icmp ne i64 %7, 0
  %9 = tail call align 8 ptr @llvm.threadlocal.address.p0(ptr align 8 @_mi_heap_default)
  %10 = load ptr, ptr %9, align 8
  %.not15 = icmp eq ptr %10, @_mi_heap_empty
  %or.cond = select i1 %8, i1 true, i1 %.not15
  br i1 %or.cond, label %52, label %11

11:                                               ; preds = %5
  %12 = tail call ptr @mi_heap_get_default() #19
  %13 = tail call zeroext i1 @_mi_segment_attempt_reclaim(ptr noundef %12, ptr noundef nonnull %1) #19
  br i1 %13, label %14, label %52

14:                                               ; preds = %11
  %15 = ptrtoint ptr %2 to i64
  %16 = add i64 %15, -1
  %17 = and i64 %16, -33554432
  %18 = inttoptr i64 %17 to ptr
  %19 = icmp slt i64 %16, 33554432
  %20 = icmp eq i64 %17, 0
  %21 = or i1 %19, %20
  br i1 %21, label %mi_free.exit, label %22, !prof !18

22:                                               ; preds = %14
  %23 = tail call ptr @llvm.thread.pointer()
  %24 = ptrtoint ptr %23 to i64
  %25 = getelementptr inbounds nuw i8, ptr %18, i64 280
  %26 = load atomic i64, ptr %25 monotonic, align 8
  %27 = icmp eq i64 %26, %24
  %28 = sub i64 %15, %17
  %29 = lshr i64 %28, 16
  %30 = getelementptr inbounds nuw i8, ptr %18, i64 288
  %31 = getelementptr inbounds nuw [513 x %struct.mi_page_s], ptr %30, i64 0, i64 %29
  %32 = getelementptr inbounds nuw i8, ptr %31, i64 4
  %33 = load i32, ptr %32, align 4, !tbaa !23
  %34 = zext i32 %33 to i64
  %35 = sub nsw i64 0, %34
  %36 = getelementptr inbounds i8, ptr %31, i64 %35
  br i1 %27, label %37, label %51, !prof !8

37:                                               ; preds = %22
  %38 = getelementptr inbounds nuw i8, ptr %36, i64 14
  %39 = load i8, ptr %38, align 2, !tbaa !24
  %40 = icmp eq i8 %39, 0
  br i1 %40, label %41, label %50, !prof !8

41:                                               ; preds = %37
  %42 = getelementptr inbounds nuw i8, ptr %36, i64 24
  %43 = load ptr, ptr %42, align 8, !tbaa !25
  %44 = ptrtoint ptr %43 to i64
  store i64 %44, ptr %2, align 8, !tbaa !19
  store ptr %2, ptr %42, align 8, !tbaa !25
  %45 = getelementptr inbounds nuw i8, ptr %36, i64 32
  %46 = load i16, ptr %45, align 8, !tbaa !21
  %47 = add i16 %46, -1
  store i16 %47, ptr %45, align 8, !tbaa !21
  %48 = icmp eq i16 %47, 0
  br i1 %48, label %49, label %mi_free.exit, !prof !18

49:                                               ; preds = %41
  tail call void @_mi_page_retire(ptr noundef nonnull %36) #19
  br label %mi_free.exit

50:                                               ; preds = %37
  tail call fastcc void @mi_free_generic_local(ptr noundef nonnull %36, ptr noundef %2) #20
  br label %mi_free.exit

51:                                               ; preds = %22
  tail call fastcc void @mi_free_generic_mt(ptr noundef nonnull %36, ptr noundef nonnull %18, ptr noundef %2) #20
  br label %mi_free.exit

52:                                               ; preds = %11, %5, %3
  %53 = getelementptr inbounds nuw i8, ptr %1, i64 264
  %54 = load i32, ptr %53, align 8, !tbaa !36
  %55 = icmp eq i32 %54, 1
  br i1 %55, label %56, label %57

56:                                               ; preds = %52
  tail call void @_mi_segment_huge_page_reset(ptr noundef nonnull %1, ptr noundef %0, ptr noundef %2) #19
  br label %57

57:                                               ; preds = %52, %56
  tail call fastcc void @mi_free_block_delayed_mt(ptr noundef %0, ptr noundef %2) #20
  br label %mi_free.exit

mi_free.exit:                                     ; preds = %51, %50, %14, %41, %49, %57
  ret void
}